	.file	"BaseC.c"
	.text
	.section	.rodata
.LC0:
	.string	"Ingrese el numero decimal, N="
.LC1:
	.string	"%i"
.LC2:
	.string	"Ingrese la nueva base, b="
	.text
	.globl	main
	.type	main, @function
main:
.LFB6:
	.cfi_startproc
	endbr64
	pushq	%rbp
	.cfi_def_cfa_offset 16
	.cfi_offset 6, -16
	movq	%rsp, %rbp
	.cfi_def_cfa_register 6
	subq	$16, %rsp
	movq	%fs:40, %rax
	movq	%rax, -8(%rbp)
	xorl	%eax, %eax
	leaq	.LC0(%rip), %rdi
	movl	$0, %eax
	call	printf@PLT
	leaq	-16(%rbp), %rax
	movq	%rax, %rsi
	leaq	.LC1(%rip), %rdi
	movl	$0, %eax
	call	__isoc99_scanf@PLT
	leaq	.LC2(%rip), %rdi
	movl	$0, %eax
	call	printf@PLT
	leaq	-12(%rbp), %rax
	movq	%rax, %rsi
	leaq	.LC1(%rip), %rdi
	movl	$0, %eax
	call	__isoc99_scanf@PLT
	movl	-12(%rbp), %edx
	movl	-16(%rbp), %eax
	movl	%edx, %esi
	movl	%eax, %edi
	call	converto
	movl	$0, %eax
	movq	-8(%rbp), %rcx
	xorq	%fs:40, %rcx
	je	.L3
	call	__stack_chk_fail@PLT
.L3:
	leave
	.cfi_def_cfa 7, 8
	ret
	.cfi_endproc
.LFE6:
	.size	main, .-main
	.section	.rodata
.LC3:
	.string	"(%i)_10=(%s)_%i \n"
	.text
	.globl	converto
	.type	converto, @function
converto:
.LFB7:
	.cfi_startproc
	endbr64
	pushq	%rbp
	.cfi_def_cfa_offset 16
	.cfi_offset 6, -16
	movq	%rsp, %rbp
	.cfi_def_cfa_register 6
	subq	$48, %rsp
	movl	%edi, -36(%rbp)
	movl	%esi, -40(%rbp)
	cvtsi2sdl	-36(%rbp), %xmm0
	call	log@PLT
	movsd	%xmm0, -48(%rbp)
	cvtsi2sdl	-40(%rbp), %xmm0
	call	log@PLT
	movsd	-48(%rbp), %xmm2
	divsd	%xmm0, %xmm2
	movapd	%xmm2, %xmm0
	cvttsd2sil	%xmm0, %eax
	movl	%eax, -20(%rbp)
	movl	-20(%rbp), %eax
	addl	$1, %eax
	cltq
	movq	%rax, %rdi
	call	malloc@PLT
	movq	%rax, -8(%rbp)
	movl	$0, -24(%rbp)
	jmp	.L5
.L39:
	movl	-20(%rbp), %eax
	subl	-24(%rbp), %eax
	cvtsi2sdl	%eax, %xmm1
	cvtsi2sdl	-40(%rbp), %xmm0
	call	pow@PLT
	cvttsd2sil	%xmm0, %eax
	movl	%eax, -16(%rbp)
	movl	-36(%rbp), %eax
	cltd
	idivl	-16(%rbp)
	cltd
	idivl	-40(%rbp)
	movl	%edx, -12(%rbp)
	cmpl	$30, -12(%rbp)
	ja	.L6
	movl	-12(%rbp), %eax
	leaq	0(,%rax,4), %rdx
	leaq	.L8(%rip), %rax
	movl	(%rdx,%rax), %eax
	cltq
	leaq	.L8(%rip), %rdx
	addq	%rdx, %rax
	notrack jmp	*%rax
	.section	.rodata
	.align 4
	.align 4
.L8:
	.long	.L38-.L8
	.long	.L37-.L8
	.long	.L36-.L8
	.long	.L35-.L8
	.long	.L34-.L8
	.long	.L33-.L8
	.long	.L32-.L8
	.long	.L31-.L8
	.long	.L30-.L8
	.long	.L29-.L8
	.long	.L28-.L8
	.long	.L27-.L8
	.long	.L26-.L8
	.long	.L25-.L8
	.long	.L24-.L8
	.long	.L23-.L8
	.long	.L22-.L8
	.long	.L21-.L8
	.long	.L20-.L8
	.long	.L19-.L8
	.long	.L18-.L8
	.long	.L17-.L8
	.long	.L16-.L8
	.long	.L15-.L8
	.long	.L14-.L8
	.long	.L13-.L8
	.long	.L12-.L8
	.long	.L11-.L8
	.long	.L10-.L8
	.long	.L9-.L8
	.long	.L7-.L8
	.text
.L38:
	movl	-24(%rbp), %eax
	movslq	%eax, %rdx
	movq	-8(%rbp), %rax
	addq	%rdx, %rax
	movb	$48, (%rax)
	jmp	.L6
.L37:
	movl	-24(%rbp), %eax
	movslq	%eax, %rdx
	movq	-8(%rbp), %rax
	addq	%rdx, %rax
	movb	$49, (%rax)
	jmp	.L6
.L36:
	movl	-24(%rbp), %eax
	movslq	%eax, %rdx
	movq	-8(%rbp), %rax
	addq	%rdx, %rax
	movb	$50, (%rax)
	jmp	.L6
.L35:
	movl	-24(%rbp), %eax
	movslq	%eax, %rdx
	movq	-8(%rbp), %rax
	addq	%rdx, %rax
	movb	$51, (%rax)
	jmp	.L6
.L34:
	movl	-24(%rbp), %eax
	movslq	%eax, %rdx
	movq	-8(%rbp), %rax
	addq	%rdx, %rax
	movb	$52, (%rax)
	jmp	.L6
.L33:
	movl	-24(%rbp), %eax
	movslq	%eax, %rdx
	movq	-8(%rbp), %rax
	addq	%rdx, %rax
	movb	$53, (%rax)
	jmp	.L6
.L32:
	movl	-24(%rbp), %eax
	movslq	%eax, %rdx
	movq	-8(%rbp), %rax
	addq	%rdx, %rax
	movb	$54, (%rax)
	jmp	.L6
.L31:
	movl	-24(%rbp), %eax
	movslq	%eax, %rdx
	movq	-8(%rbp), %rax
	addq	%rdx, %rax
	movb	$55, (%rax)
	jmp	.L6
.L30:
	movl	-24(%rbp), %eax
	movslq	%eax, %rdx
	movq	-8(%rbp), %rax
	addq	%rdx, %rax
	movb	$56, (%rax)
	jmp	.L6
.L29:
	movl	-24(%rbp), %eax
	movslq	%eax, %rdx
	movq	-8(%rbp), %rax
	addq	%rdx, %rax
	movb	$57, (%rax)
	jmp	.L6
.L28:
	movl	-24(%rbp), %eax
	movslq	%eax, %rdx
	movq	-8(%rbp), %rax
	addq	%rdx, %rax
	movb	$65, (%rax)
	jmp	.L6
.L27:
	movl	-24(%rbp), %eax
	movslq	%eax, %rdx
	movq	-8(%rbp), %rax
	addq	%rdx, %rax
	movb	$66, (%rax)
	jmp	.L6
.L26:
	movl	-24(%rbp), %eax
	movslq	%eax, %rdx
	movq	-8(%rbp), %rax
	addq	%rdx, %rax
	movb	$67, (%rax)
	jmp	.L6
.L25:
	movl	-24(%rbp), %eax
	movslq	%eax, %rdx
	movq	-8(%rbp), %rax
	addq	%rdx, %rax
	movb	$68, (%rax)
	jmp	.L6
.L24:
	movl	-24(%rbp), %eax
	movslq	%eax, %rdx
	movq	-8(%rbp), %rax
	addq	%rdx, %rax
	movb	$69, (%rax)
	jmp	.L6
.L23:
	movl	-24(%rbp), %eax
	movslq	%eax, %rdx
	movq	-8(%rbp), %rax
	addq	%rdx, %rax
	movb	$70, (%rax)
	jmp	.L6
.L22:
	movl	-24(%rbp), %eax
	movslq	%eax, %rdx
	movq	-8(%rbp), %rax
	addq	%rdx, %rax
	movb	$71, (%rax)
	jmp	.L6
.L21:
	movl	-24(%rbp), %eax
	movslq	%eax, %rdx
	movq	-8(%rbp), %rax
	addq	%rdx, %rax
	movb	$72, (%rax)
	jmp	.L6
.L20:
	movl	-24(%rbp), %eax
	movslq	%eax, %rdx
	movq	-8(%rbp), %rax
	addq	%rdx, %rax
	movb	$73, (%rax)
	jmp	.L6
.L19:
	movl	-24(%rbp), %eax
	movslq	%eax, %rdx
	movq	-8(%rbp), %rax
	addq	%rdx, %rax
	movb	$74, (%rax)
	jmp	.L6
.L18:
	movl	-24(%rbp), %eax
	movslq	%eax, %rdx
	movq	-8(%rbp), %rax
	addq	%rdx, %rax
	movb	$75, (%rax)
	jmp	.L6
.L17:
	movl	-24(%rbp), %eax
	movslq	%eax, %rdx
	movq	-8(%rbp), %rax
	addq	%rdx, %rax
	movb	$76, (%rax)
	jmp	.L6
.L16:
	movl	-24(%rbp), %eax
	movslq	%eax, %rdx
	movq	-8(%rbp), %rax
	addq	%rdx, %rax
	movb	$77, (%rax)
	jmp	.L6
.L15:
	movl	-24(%rbp), %eax
	movslq	%eax, %rdx
	movq	-8(%rbp), %rax
	addq	%rdx, %rax
	movb	$78, (%rax)
	jmp	.L6
.L14:
	movl	-24(%rbp), %eax
	movslq	%eax, %rdx
	movq	-8(%rbp), %rax
	addq	%rdx, %rax
	movb	$79, (%rax)
	jmp	.L6
.L13:
	movl	-24(%rbp), %eax
	movslq	%eax, %rdx
	movq	-8(%rbp), %rax
	addq	%rdx, %rax
	movb	$80, (%rax)
	jmp	.L6
.L12:
	movl	-24(%rbp), %eax
	movslq	%eax, %rdx
	movq	-8(%rbp), %rax
	addq	%rdx, %rax
	movb	$81, (%rax)
	jmp	.L6
.L11:
	movl	-24(%rbp), %eax
	movslq	%eax, %rdx
	movq	-8(%rbp), %rax
	addq	%rdx, %rax
	movb	$82, (%rax)
	jmp	.L6
.L10:
	movl	-24(%rbp), %eax
	movslq	%eax, %rdx
	movq	-8(%rbp), %rax
	addq	%rdx, %rax
	movb	$83, (%rax)
	jmp	.L6
.L9:
	movl	-24(%rbp), %eax
	movslq	%eax, %rdx
	movq	-8(%rbp), %rax
	addq	%rdx, %rax
	movb	$84, (%rax)
	jmp	.L6
.L7:
	movl	-24(%rbp), %eax
	movslq	%eax, %rdx
	movq	-8(%rbp), %rax
	addq	%rdx, %rax
	movb	$85, (%rax)
	nop
.L6:
	addl	$1, -24(%rbp)
.L5:
	movl	-24(%rbp), %eax
	cmpl	-20(%rbp), %eax
	jle	.L39
	movl	-40(%rbp), %ecx
	movq	-8(%rbp), %rdx
	movl	-36(%rbp), %eax
	movl	%eax, %esi
	leaq	.LC3(%rip), %rdi
	movl	$0, %eax
	call	printf@PLT
	movq	-8(%rbp), %rax
	movq	%rax, %rdi
	call	free@PLT
	movl	$0, %eax
	leave
	.cfi_def_cfa 7, 8
	ret
	.cfi_endproc
.LFE7:
	.size	converto, .-converto
	.ident	"GCC: (Ubuntu 9.3.0-17ubuntu1~20.04) 9.3.0"
	.section	.note.GNU-stack,"",@progbits
	.section	.note.gnu.property,"a"
	.align 8
	.long	 1f - 0f
	.long	 4f - 1f
	.long	 5
0:
	.string	 "GNU"
1:
	.align 8
	.long	 0xc0000002
	.long	 3f - 2f
2:
	.long	 0x3
3:
	.align 8
4:
